target datalayout = "e-m:e-p270:32:32-p271:32:32-p272:64:64-i64:64-i128:128-f80:128-n8:16:32:64-S128"
target triple = "x86_64-pc-linux-gnu"

%struct.t_bb = type { float, float, float, float, float, float, float, float, i8, i32, i32, i32, i32, i32, i32, i32, i32, i32, i32, [32 x i8] }

@.str.1 = private unnamed_addr constant [2 x i8] c"\0A\00", align 1
@.str.21 = private unnamed_addr constant [7 x i8] c"%10g  \00", align 1

; Function Attrs: mustprogress nounwind uwtable
define linkonce_odr noundef float @_ZN3gmx6squareIfEET_S1_(float noundef %0) #2 comdat {
  %2 = alloca float, align 4
  store float %0, ptr %2, align 4, !tbaa !11
  %3 = load float, ptr %2, align 4, !tbaa !11
  %4 = load float, ptr %2, align 4, !tbaa !11
  %5 = fmul float %3, %4
  ret float %5
}

; Function Attrs: inlinehint mustprogress nounwind uwtable
define linkonce_odr noundef float @_ZSt4sqrtf(float noundef %0) #3 comdat {
  %2 = alloca float, align 4
  store float %0, ptr %2, align 4, !tbaa !11
  %3 = load float, ptr %2, align 4, !tbaa !11
  %4 = call float @sqrtf(float noundef %3) #14, !tbaa !4
  ret float %4
}

; Function Attrs: mustprogress nounwind uwtable
define noundef float @_Z5pprmsP8_IO_FILEiP4t_bb(ptr noundef %0, i32 noundef %1, ptr noundef %2) #2 {
  %4 = alloca ptr, align 8
  %5 = alloca i32, align 4
  %6 = alloca ptr, align 8
  %7 = alloca i32, align 4
  %8 = alloca i32, align 4
  %9 = alloca float, align 4
  %10 = alloca float, align 4
  %11 = alloca float, align 4
  store ptr %0, ptr %4, align 8, !tbaa !30
  store i32 %1, ptr %5, align 4, !tbaa !4
  store ptr %2, ptr %6, align 8, !tbaa !8
  call void @llvm.lifetime.start.p0(i64 4, ptr %7) #14
  call void @llvm.lifetime.start.p0(i64 4, ptr %8) #14
  call void @llvm.lifetime.start.p0(i64 4, ptr %9) #14
  call void @llvm.lifetime.start.p0(i64 4, ptr %10) #14
  call void @llvm.lifetime.start.p0(i64 4, ptr %11) #14
  store float 0.000000e+00, ptr %11, align 4, !tbaa !11
  store float 0.000000e+00, ptr %10, align 4, !tbaa !11
  store i32 0, ptr %8, align 4, !tbaa !4
  store i32 0, ptr %7, align 4, !tbaa !4
  br label %12

12:                                               ; preds = %50, %3
  %13 = load i32, ptr %7, align 4, !tbaa !4
  %14 = load i32, ptr %5, align 4, !tbaa !4
  %15 = icmp slt i32 %13, %14
  br i1 %15, label %16, label %53

16:                                               ; preds = %12
  %17 = load ptr, ptr %6, align 8, !tbaa !8
  %18 = load i32, ptr %7, align 4, !tbaa !4
  %19 = sext i32 %18 to i64
  %20 = getelementptr inbounds %struct.t_bb, ptr %17, i64 %19
  %21 = getelementptr inbounds nuw %struct.t_bb, ptr %20, i32 0, i32 8
  %22 = load i8, ptr %21, align 4, !tbaa !46, !range !47, !noundef !48
  %23 = trunc i8 %22 to i1
  br i1 %23, label %24, label %49

24:                                               ; preds = %16
  %25 = load ptr, ptr %6, align 8, !tbaa !8
  %26 = load i32, ptr %7, align 4, !tbaa !4
  %27 = sext i32 %26 to i64
  %28 = getelementptr inbounds %struct.t_bb, ptr %25, i64 %27
  %29 = getelementptr inbounds nuw %struct.t_bb, ptr %28, i32 0, i32 2
  %30 = load float, ptr %29, align 4, !tbaa !143
  %31 = call noundef float @_ZSt4sqrtf(float noundef %30)
  store float %31, ptr %9, align 4, !tbaa !11
  %32 = load float, ptr %9, align 4, !tbaa !11
  %33 = load float, ptr %10, align 4, !tbaa !11
  %34 = fadd float %33, %32
  store float %34, ptr %10, align 4, !tbaa !11
  %35 = load ptr, ptr %6, align 8, !tbaa !8
  %36 = load i32, ptr %7, align 4, !tbaa !4
  %37 = sext i32 %36 to i64
  %38 = getelementptr inbounds %struct.t_bb, ptr %35, i64 %37
  %39 = getelementptr inbounds nuw %struct.t_bb, ptr %38, i32 0, i32 2
  %40 = load float, ptr %39, align 4, !tbaa !143
  %41 = load float, ptr %11, align 4, !tbaa !11
  %42 = fadd float %41, %40
  store float %42, ptr %11, align 4, !tbaa !11
  %43 = load ptr, ptr %4, align 8, !tbaa !30
  %44 = load float, ptr %9, align 4, !tbaa !11
  %45 = fpext float %44 to double
  %46 = call i32 (ptr, ptr, ...) @fprintf(ptr noundef %43, ptr noundef @.str.21, double noundef %45) #14
  %47 = load i32, ptr %8, align 4, !tbaa !4
  %48 = add nsw i32 %47, 1
  store i32 %48, ptr %8, align 4, !tbaa !4
  br label %49

49:                                               ; preds = %24, %16
  br label %50

50:                                               ; preds = %49
  %51 = load i32, ptr %7, align 4, !tbaa !4
  %52 = add nsw i32 %51, 1
  store i32 %52, ptr %7, align 4, !tbaa !4
  br label %12, !llvm.loop !144

53:                                               ; preds = %12
  %54 = load ptr, ptr %4, align 8, !tbaa !30
  %55 = call i32 (ptr, ptr, ...) @fprintf(ptr noundef %54, ptr noundef @.str.1) #14
  %56 = load float, ptr %11, align 4, !tbaa !11
  %57 = load i32, ptr %8, align 4, !tbaa !4
  %58 = sitofp i32 %57 to float
  %59 = fdiv float %56, %58
  %60 = load float, ptr %10, align 4, !tbaa !11
  %61 = load i32, ptr %8, align 4, !tbaa !4
  %62 = sitofp i32 %61 to float
  %63 = fdiv float %60, %62
  %64 = call noundef float @_ZN3gmx6squareIfEET_S1_(float noundef %63)
  %65 = fsub float %59, %64
  %66 = call noundef float @_ZSt4sqrtf(float noundef %65)
  store float %66, ptr %9, align 4, !tbaa !11
  %67 = load float, ptr %9, align 4, !tbaa !11
  call void @llvm.lifetime.end.p0(i64 4, ptr %11) #14
  call void @llvm.lifetime.end.p0(i64 4, ptr %10) #14
  call void @llvm.lifetime.end.p0(i64 4, ptr %9) #14
  call void @llvm.lifetime.end.p0(i64 4, ptr %8) #14
  call void @llvm.lifetime.end.p0(i64 4, ptr %7) #14
  ret float %67
}