; Function Attrs: mustprogress nofree nounwind uwtable
define noundef float @_Z5pprmsP8_IO_FILEiP4t_bb(ptr noundef captures(none) %0, i32 noundef %1, ptr noundef readonly captures(none) %2) local_unnamed_addr #5 {
  %4 = icmp sgt i32 %1, 0
  br i1 %4, label %.lr.ph.preheader, label %._crit_edge

.lr.ph.preheader:                                 ; preds = %3
  %wide.trip.count = zext nneg i32 %1 to i64
  br label %.lr.ph

.lr.ph:                                           ; preds = %.lr.ph.preheader, %18
  %indvars.iv = phi i64 [ 0, %.lr.ph.preheader ], [ %indvars.iv.next, %18 ]
  %.028 = phi float [ 0.000000e+00, %.lr.ph.preheader ], [ %.1, %18 ]
  %.02027 = phi float [ 0.000000e+00, %.lr.ph.preheader ], [ %.121, %18 ]
  %.02226 = phi i32 [ 0, %.lr.ph.preheader ], [ %.123, %18 ]
  %5 = getelementptr inbounds nuw %struct.t_bb, ptr %2, i64 %indvars.iv
  %6 = getelementptr inbounds nuw i8, ptr %5, i64 32
  %7 = load i8, ptr %6, align 4, !tbaa !32, !range !33, !noundef !34
  %8 = trunc nuw i8 %7 to i1
  br i1 %8, label %9, label %18

9:                                                ; preds = %.lr.ph
  %10 = getelementptr inbounds nuw i8, ptr %5, i64 8
  %11 = load float, ptr %10, align 4, !tbaa !83
  %12 = tail call noundef float @sqrtf(float noundef %11) #21, !tbaa !20
  %13 = fadd float %.02027, %12
  %14 = fadd float %.028, %11
  %15 = fpext float %12 to double
  %16 = tail call i32 (ptr, ptr, ...) @fprintf(ptr noundef %0, ptr noundef nonnull @.str.21, double noundef %15) #21
  %17 = add nsw i32 %.02226, 1
  br label %18

18:                                               ; preds = %.lr.ph, %9
  %.123 = phi i32 [ %17, %9 ], [ %.02226, %.lr.ph ]
  %.121 = phi float [ %13, %9 ], [ %.02027, %.lr.ph ]
  %.1 = phi float [ %14, %9 ], [ %.028, %.lr.ph ]
  %indvars.iv.next = add nuw nsw i64 %indvars.iv, 1
  %exitcond.not = icmp eq i64 %indvars.iv.next, %wide.trip.count
  br i1 %exitcond.not, label %._crit_edge.loopexit, label %.lr.ph, !llvm.loop !84

._crit_edge.loopexit:                             ; preds = %18
  %19 = sitofp i32 %.123 to float
  br label %._crit_edge

._crit_edge:                                      ; preds = %._crit_edge.loopexit, %3
  %.022.lcssa = phi float [ 0.000000e+00, %3 ], [ %19, %._crit_edge.loopexit ]
  %.020.lcssa = phi float [ 0.000000e+00, %3 ], [ %.121, %._crit_edge.loopexit ]
  %.0.lcssa = phi float [ 0.000000e+00, %3 ], [ %.1, %._crit_edge.loopexit ]
  %fputc = tail call i32 @fputc(i32 10, ptr %0)
  %20 = fdiv float %.0.lcssa, %.022.lcssa
  %21 = fdiv float %.020.lcssa, %.022.lcssa
  %22 = fmul float %21, %21
  %23 = fsub float %20, %22
  %24 = tail call noundef float @sqrtf(float noundef %23) #21, !tbaa !20
  ret float %24
}